; Function Attrs: mustprogress uwtable
define void @_ZN18OpenImageIO_v2_6_020parallel_for_chunkedElllOSt8functionIFvllEENS_6paroptE(i64 noundef %begin, i64 noundef %end, i64 noundef %chunksize, ptr noundef nonnull align 8 dereferenceable(32) %task, ptr nocapture noundef readonly byval(%"class.OpenImageIO_v2_6_0::paropt") align 8 %opt) local_unnamed_addr #4 personality ptr @__gxx_personality_v0 {
entry:
  %ref.tmp = alloca %"class.std::function", align 8
  %_M_manager.i.i = getelementptr inbounds i8, ptr %ref.tmp, i64 16
  %_M_invoker.i = getelementptr inbounds i8, ptr %ref.tmp, i64 24
  %0 = getelementptr inbounds i8, ptr %ref.tmp, i64 8
  store i64 0, ptr %0, align 8
  %1 = ptrtoint ptr %task to i64
  store i64 %1, ptr %ref.tmp, align 8
  store ptr @"_ZNSt17_Function_handlerIFvillEZN18OpenImageIO_v2_6_020parallel_for_chunkedElllOSt8functionIFvllEENS1_6paroptEE3$_0E9_M_invokeERKSt9_Any_dataOiOlSD_", ptr %_M_invoker.i, align 8
  store ptr @"_ZNSt17_Function_handlerIFvillEZN18OpenImageIO_v2_6_020parallel_for_chunkedElllOSt8functionIFvllEENS1_6paroptEE3$_0E10_M_managerERSt9_Any_dataRKS9_St18_Manager_operation", ptr %_M_manager.i.i, align 8
  invoke void @_ZN18OpenImageIO_v2_6_023parallel_for_chunked_idElllOSt8functionIFvillEENS_6paroptE(i64 noundef %begin, i64 noundef %end, i64 noundef %chunksize, ptr noundef nonnull align 8 dereferenceable(32) %ref.tmp, ptr noundef nonnull byval(%"class.OpenImageIO_v2_6_0::paropt") align 8 %opt)
          to label %invoke.cont unwind label %lpad

invoke.cont:                                      ; preds = %entry
  %2 = load ptr, ptr %_M_manager.i.i, align 8
  %tobool.not.i.i = icmp eq ptr %2, null
  br i1 %tobool.not.i.i, label %_ZNSt8functionIFvillEED2Ev.exit, label %if.then.i.i

if.then.i.i:                                      ; preds = %invoke.cont
  %call.i.i = invoke noundef zeroext i1 %2(ptr noundef nonnull align 8 dereferenceable(16) %ref.tmp, ptr noundef nonnull align 8 dereferenceable(16) %ref.tmp, i32 noundef 3)
          to label %_ZNSt8functionIFvillEED2Ev.exit unwind label %terminate.lpad.i.i

terminate.lpad.i.i:                               ; preds = %if.then.i.i
  %3 = landingpad { ptr, i32 }
          catch ptr null
  %4 = extractvalue { ptr, i32 } %3, 0
  call void @__clang_call_terminate(ptr %4) #29
  unreachable

_ZNSt8functionIFvillEED2Ev.exit:                  ; preds = %invoke.cont, %if.then.i.i
  ret void

lpad:                                             ; preds = %entry
  %5 = landingpad { ptr, i32 }
          cleanup
  %6 = load ptr, ptr %_M_manager.i.i, align 8
  %tobool.not.i.i3 = icmp eq ptr %6, null
  br i1 %tobool.not.i.i3, label %_ZNSt8functionIFvillEED2Ev.exit7, label %if.then.i.i4

if.then.i.i4:                                     ; preds = %lpad
  %call.i.i5 = invoke noundef zeroext i1 %6(ptr noundef nonnull align 8 dereferenceable(16) %ref.tmp, ptr noundef nonnull align 8 dereferenceable(16) %ref.tmp, i32 noundef 3)
          to label %_ZNSt8functionIFvillEED2Ev.exit7 unwind label %terminate.lpad.i.i6

terminate.lpad.i.i6:                              ; preds = %if.then.i.i4
  %7 = landingpad { ptr, i32 }
          catch ptr null
  %8 = extractvalue { ptr, i32 } %7, 0
  call void @__clang_call_terminate(ptr %8) #29
  unreachable

_ZNSt8functionIFvillEED2Ev.exit7:                 ; preds = %lpad, %if.then.i.i4
  resume { ptr, i32 } %5
}